; Function Attrs: mustprogress uwtable
define hidden void @_ZN6memory19display_i_max_usageERSo(ptr noundef nonnull readnone align 8 captures(none) dereferenceable(8) %0) local_unnamed_addr #3 align 2 personality ptr @__gxx_personality_v0 {
  %2 = load ptr, ptr @_ZL12g_memory_mux, align 8, !tbaa !14
  %3 = tail call noundef i32 @pthread_mutex_lock(ptr noundef nonnull align 8 dereferenceable(40) %2) #25
  %.not.i.i.i = icmp eq i32 %3, 0
  br i1 %.not.i.i.i, label %_ZN6memory19get_max_used_memoryEv.exit, label %4

4:                                                ; preds = %1
  tail call void @_ZSt20__throw_system_errori(i32 noundef %3) #26
  unreachable

_ZN6memory19get_max_used_memoryEv.exit:           ; preds = %1
  %5 = load i64, ptr @_ZL22g_memory_max_used_size, align 8, !tbaa !12
  %6 = tail call noundef i32 @pthread_mutex_unlock(ptr noundef nonnull align 8 dereferenceable(40) %2) #25
  %7 = tail call noundef nonnull align 8 dereferenceable(8) ptr @_ZSt16__ostream_insertIcSt11char_traitsIcEERSt13basic_ostreamIT_T0_ES6_PKS3_l(ptr noundef nonnull align 8 dereferenceable(8) @_ZSt4cout, ptr noundef nonnull @.str.3, i64 noundef 7)
  %8 = uitofp nneg i64 %5 to double
  %9 = fmul double %8, 0x3EB0000000000000
  %10 = tail call noundef nonnull align 8 dereferenceable(8) ptr @_ZNSo9_M_insertIdEERSoT_(ptr noundef nonnull align 8 dereferenceable(8) @_ZSt4cout, double noundef %9)
  %11 = tail call noundef nonnull align 8 dereferenceable(8) ptr @_ZSt16__ostream_insertIcSt11char_traitsIcEERSt13basic_ostreamIT_T0_ES6_PKS3_l(ptr noundef nonnull align 8 dereferenceable(8) %10, ptr noundef nonnull @.str.4, i64 noundef 1)
  ret void
}